target datalayout = "e-m:e-p270:32:32-p271:32:32-p272:64:64-i64:64-i128:128-f80:128-n8:16:32:64-S128"
target triple = "x86_64-unknown-linux-gnu"

%struct.BDRVQEDState = type { ptr, %struct.QEDHeader, %struct.CoMutex, ptr, %struct.L2TableCache, i32, i32, i32, i32, i64, ptr, %struct.CoQueue, i8, ptr }
%struct.QEDHeader = type { i32, i32, i32, i32, i64, i64, i64, i64, i64, i32, i32 }
%struct.CoMutex = type { i32, ptr, %struct.anon, %struct.anon, i32, i32, ptr }
%struct.anon = type { ptr }
%struct.L2TableCache = type { %union.anon, i32 }
%union.anon = type { %struct.QTailQLink }
%struct.QTailQLink = type { ptr, ptr }
%struct.CoQueue = type { %struct.anon.0 }
%struct.anon.0 = type { ptr, ptr }
%struct.BlockDriverState = type { i32, i8, i8, i8, i8, i8, ptr, ptr, ptr, %struct.anon.1, i8, [4096 x i8], [4096 x i8], [4096 x i8], [16 x i8], ptr, [4096 x i8], %struct.BlockLimits, i32, i32, i32, i32, [32 x i8], %union.anon.2, %union.anon.3, %union.anon.4, i32, [16 x %struct.anon.5], ptr, %struct.anon.6, ptr, ptr, %struct.anon.7, ptr, ptr, i32, ptr, i64, i64, %struct.QemuMutex, %struct.anon.8, %struct.Stat64, i32, i32, i32, i32, i32, i32, %struct.QemuMutex, %struct.anon.9, %struct.CoQueue, i8, i32, i8, %struct.CoMutex, ptr, ptr }
%struct.anon.1 = type { ptr }
%struct.BlockLimits = type { i32, i64, i32, i64, i32, i32, i32, i64, i32, i64, i64, i32, i8, i32, i32, i32, i32, i32, i32, i32 }
%union.anon.2 = type { %struct.QTailQLink }
%union.anon.3 = type { %struct.QTailQLink }
%union.anon.4 = type { %struct.QTailQLink }
%struct.anon.5 = type { ptr }
%struct.anon.6 = type { ptr }
%struct.anon.7 = type { ptr }
%struct.anon.8 = type { ptr }
%struct.Stat64 = type { i64 }
%struct.QemuMutex = type { %union.pthread_mutex_t, i8 }
%union.pthread_mutex_t = type { %struct.__pthread_mutex_s }
%struct.__pthread_mutex_s = type { i32, i32, i32, i32, i32, i16, i16, %struct.__pthread_internal_list }
%struct.__pthread_internal_list = type { ptr, ptr }
%struct.anon.9 = type { ptr }
%struct.QEDTable = type { [0 x i64] }
%struct.QEMUIOVector = type { ptr, i32, %union.anon.13 }
%union.anon.13 = type { %struct.anon.14 }
%struct.anon.14 = type { i32, %struct.iovec }
%struct.iovec = type { ptr, i64 }
%struct.timeval = type { i64, i64 }

@trace_events_enabled_count = external global i32, align 4
@_TRACE_QED_READ_TABLE_DSTATE = external global i16, align 2
@message_with_timestamp = external global i8, align 1
@.str.2 = private unnamed_addr constant [54 x i8] c"%d@%zu.%06zu:qed_read_table s %p offset %lu table %p\0A\00", align 1
@.str.3 = private unnamed_addr constant [41 x i8] c"qed_read_table s %p offset %lu table %p\0A\00", align 1
@qemu_loglevel = external global i32, align 4
@_TRACE_QED_READ_TABLE_CB_DSTATE = external global i16, align 2
@.str.4 = private unnamed_addr constant [53 x i8] c"%d@%zu.%06zu:qed_read_table_cb s %p table %p ret %d\0A\00", align 1
@.str.5 = private unnamed_addr constant [40 x i8] c"qed_read_table_cb s %p table %p ret %d\0A\00", align 1

; Function Attrs: nounwind sspstrong uwtable
define internal zeroext i1 @qemu_loglevel_mask(i32 noundef %mask) #0 {
entry:
  %mask.addr = alloca i32, align 4
  store i32 %mask, ptr %mask.addr, align 4
  %0 = load i32, ptr @qemu_loglevel, align 4
  %1 = load i32, ptr %mask.addr, align 4
  %and = and i32 %0, %1
  %cmp = icmp ne i32 %and, 0
  ret i1 %cmp
}

; Function Attrs: nounwind sspstrong uwtable
define internal void @_nocheck__trace_qed_read_table_cb(ptr noundef %s, ptr noundef %table, i32 noundef %ret) #0 {
entry:
  %s.addr = alloca ptr, align 8
  %table.addr = alloca ptr, align 8
  %ret.addr = alloca i32, align 4
  %_now = alloca %struct.timeval, align 8
  store ptr %s, ptr %s.addr, align 8
  store ptr %table, ptr %table.addr, align 8
  store i32 %ret, ptr %ret.addr, align 4
  %0 = load i32, ptr @trace_events_enabled_count, align 4
  %tobool = icmp ne i32 %0, 0
  %lnot = xor i1 %tobool, true
  %lnot1 = xor i1 %lnot, true
  %lnot.ext = zext i1 %lnot1 to i32
  %conv = sext i32 %lnot.ext to i64
  %tobool2 = icmp ne i64 %conv, 0
  br i1 %tobool2, label %land.lhs.true, label %if.end11

land.lhs.true:                                    ; preds = %entry
  %1 = load i16, ptr @_TRACE_QED_READ_TABLE_CB_DSTATE, align 2
  %conv3 = zext i16 %1 to i32
  %tobool4 = icmp ne i32 %conv3, 0
  br i1 %tobool4, label %land.lhs.true5, label %if.end11

land.lhs.true5:                                   ; preds = %land.lhs.true
  %call = call zeroext i1 @qemu_loglevel_mask(i32 noundef 32768)
  br i1 %call, label %if.then, label %if.end11

if.then:                                          ; preds = %land.lhs.true5
  %2 = load i8, ptr @message_with_timestamp, align 1
  %tobool7 = trunc i8 %2 to i1
  br i1 %tobool7, label %if.then8, label %if.else

if.then8:                                         ; preds = %if.then
  %call9 = call i32 @gettimeofday(ptr noundef %_now, ptr noundef null) #5
  %call10 = call i32 @qemu_get_thread_id()
  %tv_sec = getelementptr inbounds %struct.timeval, ptr %_now, i32 0, i32 0
  %3 = load i64, ptr %tv_sec, align 8
  %tv_usec = getelementptr inbounds %struct.timeval, ptr %_now, i32 0, i32 1
  %4 = load i64, ptr %tv_usec, align 8
  %5 = load ptr, ptr %s.addr, align 8
  %6 = load ptr, ptr %table.addr, align 8
  %7 = load i32, ptr %ret.addr, align 4
  call void (ptr, ...) @qemu_log(ptr noundef @.str.4, i32 noundef %call10, i64 noundef %3, i64 noundef %4, ptr noundef %5, ptr noundef %6, i32 noundef %7)
  br label %if.end

if.else:                                          ; preds = %if.then
  %8 = load ptr, ptr %s.addr, align 8
  %9 = load ptr, ptr %table.addr, align 8
  %10 = load i32, ptr %ret.addr, align 4
  call void (ptr, ...) @qemu_log(ptr noundef @.str.5, ptr noundef %8, ptr noundef %9, i32 noundef %10)
  br label %if.end

if.end:                                           ; preds = %if.else, %if.then8
  br label %if.end11

if.end11:                                         ; preds = %if.end, %land.lhs.true5, %land.lhs.true, %entry
  ret void
}

; Function Attrs: nounwind sspstrong uwtable
define internal void @_nocheck__trace_qed_read_table(ptr noundef %s, i64 noundef %offset, ptr noundef %table) #0 {
entry:
  %s.addr = alloca ptr, align 8
  %offset.addr = alloca i64, align 8
  %table.addr = alloca ptr, align 8
  %_now = alloca %struct.timeval, align 8
  store ptr %s, ptr %s.addr, align 8
  store i64 %offset, ptr %offset.addr, align 8
  store ptr %table, ptr %table.addr, align 8
  %0 = load i32, ptr @trace_events_enabled_count, align 4
  %tobool = icmp ne i32 %0, 0
  %lnot = xor i1 %tobool, true
  %lnot1 = xor i1 %lnot, true
  %lnot.ext = zext i1 %lnot1 to i32
  %conv = sext i32 %lnot.ext to i64
  %tobool2 = icmp ne i64 %conv, 0
  br i1 %tobool2, label %land.lhs.true, label %if.end11

land.lhs.true:                                    ; preds = %entry
  %1 = load i16, ptr @_TRACE_QED_READ_TABLE_DSTATE, align 2
  %conv3 = zext i16 %1 to i32
  %tobool4 = icmp ne i32 %conv3, 0
  br i1 %tobool4, label %land.lhs.true5, label %if.end11

land.lhs.true5:                                   ; preds = %land.lhs.true
  %call = call zeroext i1 @qemu_loglevel_mask(i32 noundef 32768)
  br i1 %call, label %if.then, label %if.end11

if.then:                                          ; preds = %land.lhs.true5
  %2 = load i8, ptr @message_with_timestamp, align 1
  %tobool7 = trunc i8 %2 to i1
  br i1 %tobool7, label %if.then8, label %if.else

if.then8:                                         ; preds = %if.then
  %call9 = call i32 @gettimeofday(ptr noundef %_now, ptr noundef null) #5
  %call10 = call i32 @qemu_get_thread_id()
  %tv_sec = getelementptr inbounds %struct.timeval, ptr %_now, i32 0, i32 0
  %3 = load i64, ptr %tv_sec, align 8
  %tv_usec = getelementptr inbounds %struct.timeval, ptr %_now, i32 0, i32 1
  %4 = load i64, ptr %tv_usec, align 8
  %5 = load ptr, ptr %s.addr, align 8
  %6 = load i64, ptr %offset.addr, align 8
  %7 = load ptr, ptr %table.addr, align 8
  call void (ptr, ...) @qemu_log(ptr noundef @.str.2, i32 noundef %call10, i64 noundef %3, i64 noundef %4, ptr noundef %5, i64 noundef %6, ptr noundef %7)
  br label %if.end

if.else:                                          ; preds = %if.then
  %8 = load ptr, ptr %s.addr, align 8
  %9 = load i64, ptr %offset.addr, align 8
  %10 = load ptr, ptr %table.addr, align 8
  call void (ptr, ...) @qemu_log(ptr noundef @.str.3, ptr noundef %8, i64 noundef %9, ptr noundef %10)
  br label %if.end

if.end:                                           ; preds = %if.else, %if.then8
  br label %if.end11

if.end11:                                         ; preds = %if.end, %land.lhs.true5, %land.lhs.true, %entry
  ret void
}

; Function Attrs: nounwind sspstrong uwtable
define internal void @trace_qed_read_table_cb(ptr noundef %s, ptr noundef %table, i32 noundef %ret) #0 {
entry:
  %s.addr = alloca ptr, align 8
  %table.addr = alloca ptr, align 8
  %ret.addr = alloca i32, align 4
  store ptr %s, ptr %s.addr, align 8
  store ptr %table, ptr %table.addr, align 8
  store i32 %ret, ptr %ret.addr, align 4
  %0 = load ptr, ptr %s.addr, align 8
  %1 = load ptr, ptr %table.addr, align 8
  %2 = load i32, ptr %ret.addr, align 4
  call void @_nocheck__trace_qed_read_table_cb(ptr noundef %0, ptr noundef %1, i32 noundef %2)
  ret void
}

; Function Attrs: nounwind sspstrong uwtable
define internal i64 @le64_to_cpu(i64 noundef %v) #0 {
entry:
  %v.addr = alloca i64, align 8
  store i64 %v, ptr %v.addr, align 8
  %0 = load i64, ptr %v.addr, align 8
  ret i64 %0
}

; Function Attrs: nounwind sspstrong uwtable
define internal i32 @bdrv_co_pread(ptr noundef %child, i64 noundef %offset, i64 noundef %bytes, ptr noundef %buf, i32 noundef %flags) #0 {
entry:
  %child.addr = alloca ptr, align 8
  %offset.addr = alloca i64, align 8
  %bytes.addr = alloca i64, align 8
  %buf.addr = alloca ptr, align 8
  %flags.addr = alloca i32, align 4
  %qiov = alloca %struct.QEMUIOVector, align 8
  store ptr %child, ptr %child.addr, align 8
  store i64 %offset, ptr %offset.addr, align 8
  store i64 %bytes, ptr %bytes.addr, align 8
  store ptr %buf, ptr %buf.addr, align 8
  store i32 %flags, ptr %flags.addr, align 4
  %iov = getelementptr inbounds %struct.QEMUIOVector, ptr %qiov, i32 0, i32 0
  %0 = getelementptr inbounds %struct.QEMUIOVector, ptr %qiov, i32 0, i32 2
  %local_iov = getelementptr inbounds %struct.anon.14, ptr %0, i32 0, i32 1
  store ptr %local_iov, ptr %iov, align 8
  %niov = getelementptr inbounds %struct.QEMUIOVector, ptr %qiov, i32 0, i32 1
  store i32 1, ptr %niov, align 8
  %1 = getelementptr inbounds %struct.QEMUIOVector, ptr %qiov, i32 0, i32 2
  %nalloc = getelementptr inbounds %struct.anon.14, ptr %1, i32 0, i32 0
  store i32 -1, ptr %nalloc, align 8
  %local_iov1 = getelementptr inbounds %struct.anon.14, ptr %1, i32 0, i32 1
  %iov_base = getelementptr inbounds %struct.iovec, ptr %local_iov1, i32 0, i32 0
  %2 = load ptr, ptr %buf.addr, align 8
  store ptr %2, ptr %iov_base, align 8
  %iov_len = getelementptr inbounds %struct.iovec, ptr %local_iov1, i32 0, i32 1
  %3 = load i64, ptr %bytes.addr, align 8
  store i64 %3, ptr %iov_len, align 8
  br label %do.body

do.body:                                          ; preds = %entry
  br label %do.end

do.end:                                           ; preds = %do.body
  call void @assert_bdrv_graph_readable()
  %4 = load ptr, ptr %child.addr, align 8
  %5 = load i64, ptr %offset.addr, align 8
  %6 = load i64, ptr %bytes.addr, align 8
  %7 = load i32, ptr %flags.addr, align 4
  %call = call i32 @bdrv_co_preadv(ptr noundef %4, i64 noundef %5, i64 noundef %6, ptr noundef %qiov, i32 noundef %7)
  ret i32 %call
}

; Function Attrs: nounwind sspstrong uwtable
define internal void @trace_qed_read_table(ptr noundef %s, i64 noundef %offset, ptr noundef %table) #0 {
entry:
  %s.addr = alloca ptr, align 8
  %offset.addr = alloca i64, align 8
  %table.addr = alloca ptr, align 8
  store ptr %s, ptr %s.addr, align 8
  store i64 %offset, ptr %offset.addr, align 8
  store ptr %table, ptr %table.addr, align 8
  %0 = load ptr, ptr %s.addr, align 8
  %1 = load i64, ptr %offset.addr, align 8
  %2 = load ptr, ptr %table.addr, align 8
  call void @_nocheck__trace_qed_read_table(ptr noundef %0, i64 noundef %1, ptr noundef %2)
  ret void
}

; Function Attrs: nounwind sspstrong uwtable
define internal i32 @qed_read_table(ptr noundef %s, i64 noundef %offset, ptr noundef %table) #0 {
entry:
  %s.addr = alloca ptr, align 8
  %offset.addr = alloca i64, align 8
  %table.addr = alloca ptr, align 8
  %bytes = alloca i32, align 4
  %noffsets = alloca i32, align 4
  %i = alloca i32, align 4
  %ret = alloca i32, align 4
  store ptr %s, ptr %s.addr, align 8
  store i64 %offset, ptr %offset.addr, align 8
  store ptr %table, ptr %table.addr, align 8
  %0 = load ptr, ptr %s.addr, align 8
  %header = getelementptr inbounds %struct.BDRVQEDState, ptr %0, i32 0, i32 1
  %cluster_size = getelementptr inbounds %struct.QEDHeader, ptr %header, i32 0, i32 1
  %1 = load i32, ptr %cluster_size, align 4
  %2 = load ptr, ptr %s.addr, align 8
  %header1 = getelementptr inbounds %struct.BDRVQEDState, ptr %2, i32 0, i32 1
  %table_size = getelementptr inbounds %struct.QEDHeader, ptr %header1, i32 0, i32 2
  %3 = load i32, ptr %table_size, align 8
  %mul = mul i32 %1, %3
  store i32 %mul, ptr %bytes, align 4
  %4 = load ptr, ptr %s.addr, align 8
  %5 = load i64, ptr %offset.addr, align 8
  %6 = load ptr, ptr %table.addr, align 8
  call void @trace_qed_read_table(ptr noundef %4, i64 noundef %5, ptr noundef %6)
  %7 = load ptr, ptr %s.addr, align 8
  %table_lock = getelementptr inbounds %struct.BDRVQEDState, ptr %7, i32 0, i32 2
  call void @qemu_co_mutex_unlock(ptr noundef %table_lock)
  %8 = load ptr, ptr %s.addr, align 8
  %bs = getelementptr inbounds %struct.BDRVQEDState, ptr %8, i32 0, i32 0
  %9 = load ptr, ptr %bs, align 8
  %file = getelementptr inbounds %struct.BlockDriverState, ptr %9, i32 0, i32 31
  %10 = load ptr, ptr %file, align 8
  %11 = load i64, ptr %offset.addr, align 8
  %12 = load i32, ptr %bytes, align 4
  %conv = zext i32 %12 to i64
  %13 = load ptr, ptr %table.addr, align 8
  %offsets = getelementptr inbounds %struct.QEDTable, ptr %13, i32 0, i32 0
  %arraydecay = getelementptr inbounds [0 x i64], ptr %offsets, i64 0, i64 0
  %call = call i32 @bdrv_co_pread(ptr noundef %10, i64 noundef %11, i64 noundef %conv, ptr noundef %arraydecay, i32 noundef 0)
  store i32 %call, ptr %ret, align 4
  %14 = load ptr, ptr %s.addr, align 8
  %table_lock2 = getelementptr inbounds %struct.BDRVQEDState, ptr %14, i32 0, i32 2
  call void @qemu_co_mutex_lock(ptr noundef %table_lock2)
  %15 = load i32, ptr %ret, align 4
  %cmp = icmp slt i32 %15, 0
  br i1 %cmp, label %if.then, label %if.end

if.then:                                          ; preds = %entry
  br label %out

if.end:                                           ; preds = %entry
  %16 = load i32, ptr %bytes, align 4
  %conv4 = zext i32 %16 to i64
  %div = udiv i64 %conv4, 8
  %conv5 = trunc i64 %div to i32
  store i32 %conv5, ptr %noffsets, align 4
  store i32 0, ptr %i, align 4
  br label %for.cond

for.cond:                                         ; preds = %for.inc, %if.end
  %17 = load i32, ptr %i, align 4
  %18 = load i32, ptr %noffsets, align 4
  %cmp6 = icmp slt i32 %17, %18
  br i1 %cmp6, label %for.body, label %for.end

for.body:                                         ; preds = %for.cond
  %19 = load ptr, ptr %table.addr, align 8
  %offsets8 = getelementptr inbounds %struct.QEDTable, ptr %19, i32 0, i32 0
  %20 = load i32, ptr %i, align 4
  %idxprom = sext i32 %20 to i64
  %arrayidx = getelementptr [0 x i64], ptr %offsets8, i64 0, i64 %idxprom
  %21 = load i64, ptr %arrayidx, align 8
  %call9 = call i64 @le64_to_cpu(i64 noundef %21)
  %22 = load ptr, ptr %table.addr, align 8
  %offsets10 = getelementptr inbounds %struct.QEDTable, ptr %22, i32 0, i32 0
  %23 = load i32, ptr %i, align 4
  %idxprom11 = sext i32 %23 to i64
  %arrayidx12 = getelementptr [0 x i64], ptr %offsets10, i64 0, i64 %idxprom11
  store i64 %call9, ptr %arrayidx12, align 8
  br label %for.inc

for.inc:                                          ; preds = %for.body
  %24 = load i32, ptr %i, align 4
  %inc = add i32 %24, 1
  store i32 %inc, ptr %i, align 4
  br label %for.cond, !llvm.loop !5

for.end:                                          ; preds = %for.cond
  store i32 0, ptr %ret, align 4
  br label %out

out:                                              ; preds = %for.end, %if.then
  %25 = load ptr, ptr %s.addr, align 8
  %26 = load ptr, ptr %table.addr, align 8
  %27 = load i32, ptr %ret, align 4
  call void @trace_qed_read_table_cb(ptr noundef %25, ptr noundef %26, i32 noundef %27)
  %28 = load i32, ptr %ret, align 4
  ret i32 %28
}