; Function Attrs: nounwind sspstrong uwtable
define internal range(i32 -2147483648, 1) i32 @qed_read_table(ptr noundef %s, i64 noundef %offset, ptr noundef %table) #0 {
entry:
  %_now.i.i19 = alloca %struct.timeval, align 8
  %qiov.i = alloca %struct.QEMUIOVector, align 8
  %_now.i.i = alloca %struct.timeval, align 8
  %cluster_size = getelementptr inbounds nuw i8, ptr %s, i64 12
  %0 = load i32, ptr %cluster_size, align 4
  %table_size = getelementptr inbounds nuw i8, ptr %s, i64 16
  %1 = load i32, ptr %table_size, align 8
  %mul = mul i32 %1, %0
  call void @llvm.lifetime.start.p0(i64 16, ptr nonnull %_now.i.i)
  %2 = load i32, ptr @trace_events_enabled_count, align 4
  %tobool.i.i = icmp ne i32 %2, 0
  %3 = load i16, ptr @_TRACE_QED_READ_TABLE_DSTATE, align 2
  %tobool4.i.i = icmp ne i16 %3, 0
  %or.cond.i.i = select i1 %tobool.i.i, i1 %tobool4.i.i, i1 false
  br i1 %or.cond.i.i, label %land.lhs.true5.i.i, label %trace_qed_read_table.exit

land.lhs.true5.i.i:                               ; preds = %entry
  %4 = load i32, ptr @qemu_loglevel, align 4
  %and.i.i.i = and i32 %4, 32768
  %cmp.i.not.i.i = icmp eq i32 %and.i.i.i, 0
  br i1 %cmp.i.not.i.i, label %trace_qed_read_table.exit, label %if.then.i.i

if.then.i.i:                                      ; preds = %land.lhs.true5.i.i
  %5 = load i8, ptr @message_with_timestamp, align 1
  %tobool7.i.i = trunc i8 %5 to i1
  br i1 %tobool7.i.i, label %if.then8.i.i, label %if.else.i.i

if.then8.i.i:                                     ; preds = %if.then.i.i
  %call9.i.i = call i32 @gettimeofday(ptr noundef nonnull %_now.i.i, ptr noundef null) #6
  %call10.i.i = tail call i32 @qemu_get_thread_id() #6
  %6 = load i64, ptr %_now.i.i, align 8
  %tv_usec.i.i = getelementptr inbounds nuw i8, ptr %_now.i.i, i64 8
  %7 = load i64, ptr %tv_usec.i.i, align 8
  tail call void (ptr, ...) @qemu_log(ptr noundef nonnull @.str.2, i32 noundef %call10.i.i, i64 noundef %6, i64 noundef %7, ptr noundef nonnull %s, i64 noundef %offset, ptr noundef %table) #6
  br label %trace_qed_read_table.exit

if.else.i.i:                                      ; preds = %if.then.i.i
  tail call void (ptr, ...) @qemu_log(ptr noundef nonnull @.str.3, ptr noundef nonnull %s, i64 noundef %offset, ptr noundef %table) #6
  br label %trace_qed_read_table.exit

trace_qed_read_table.exit:                        ; preds = %entry, %land.lhs.true5.i.i, %if.then8.i.i, %if.else.i.i
  call void @llvm.lifetime.end.p0(i64 16, ptr nonnull %_now.i.i)
  %table_lock = getelementptr inbounds nuw i8, ptr %s, i64 72
  tail call void @qemu_co_mutex_unlock(ptr noundef nonnull %table_lock) #6
  %8 = load ptr, ptr %s, align 8
  %file = getelementptr inbounds nuw i8, ptr %8, i64 16840
  %9 = load ptr, ptr %file, align 8
  %conv = zext i32 %mul to i64
  call void @llvm.lifetime.start.p0(i64 40, ptr nonnull %qiov.i)
  %10 = getelementptr inbounds nuw i8, ptr %qiov.i, i64 16
  %local_iov.i = getelementptr inbounds nuw i8, ptr %qiov.i, i64 24
  store ptr %local_iov.i, ptr %qiov.i, align 8
  %niov.i = getelementptr inbounds nuw i8, ptr %qiov.i, i64 8
  store i32 1, ptr %niov.i, align 8
  store i32 -1, ptr %10, align 8
  store ptr %table, ptr %local_iov.i, align 8
  %iov_len.i = getelementptr inbounds nuw i8, ptr %qiov.i, i64 32
  store i64 %conv, ptr %iov_len.i, align 8
  call void @assert_bdrv_graph_readable() #6
  %call.i = call i32 @bdrv_co_preadv(ptr noundef %9, i64 noundef %offset, i64 noundef %conv, ptr noundef nonnull %qiov.i, i32 noundef 0) #6
  call void @llvm.lifetime.end.p0(i64 40, ptr nonnull %qiov.i)
  call void @qemu_co_mutex_lock(ptr noundef nonnull %table_lock) #6
  %spec.select = call i32 @llvm.smin.i32(i32 %call.i, i32 0)
  call void @llvm.lifetime.start.p0(i64 16, ptr nonnull %_now.i.i19)
  %11 = load i32, ptr @trace_events_enabled_count, align 4
  %tobool.i.i20 = icmp ne i32 %11, 0
  %12 = load i16, ptr @_TRACE_QED_READ_TABLE_CB_DSTATE, align 2
  %tobool4.i.i21 = icmp ne i16 %12, 0
  %or.cond.i.i22 = select i1 %tobool.i.i20, i1 %tobool4.i.i21, i1 false
  br i1 %or.cond.i.i22, label %land.lhs.true5.i.i23, label %trace_qed_read_table_cb.exit

land.lhs.true5.i.i23:                             ; preds = %trace_qed_read_table.exit
  %13 = load i32, ptr @qemu_loglevel, align 4
  %and.i.i.i24 = and i32 %13, 32768
  %cmp.i.not.i.i25 = icmp eq i32 %and.i.i.i24, 0
  br i1 %cmp.i.not.i.i25, label %trace_qed_read_table_cb.exit, label %if.then.i.i26

if.then.i.i26:                                    ; preds = %land.lhs.true5.i.i23
  %14 = load i8, ptr @message_with_timestamp, align 1
  %tobool7.i.i27 = trunc i8 %14 to i1
  br i1 %tobool7.i.i27, label %if.then8.i.i29, label %if.else.i.i28

if.then8.i.i29:                                   ; preds = %if.then.i.i26
  %call9.i.i30 = call i32 @gettimeofday(ptr noundef nonnull %_now.i.i19, ptr noundef null) #6
  %call10.i.i31 = call i32 @qemu_get_thread_id() #6
  %15 = load i64, ptr %_now.i.i19, align 8
  %tv_usec.i.i32 = getelementptr inbounds nuw i8, ptr %_now.i.i19, i64 8
  %16 = load i64, ptr %tv_usec.i.i32, align 8
  call void (ptr, ...) @qemu_log(ptr noundef nonnull @.str.4, i32 noundef %call10.i.i31, i64 noundef %15, i64 noundef %16, ptr noundef nonnull %s, ptr noundef %table, i32 noundef range(i32 -2147483648, 1) %spec.select) #6
  br label %trace_qed_read_table_cb.exit

if.else.i.i28:                                    ; preds = %if.then.i.i26
  call void (ptr, ...) @qemu_log(ptr noundef nonnull @.str.5, ptr noundef nonnull %s, ptr noundef %table, i32 noundef range(i32 -2147483648, 1) %spec.select) #6
  br label %trace_qed_read_table_cb.exit

trace_qed_read_table_cb.exit:                     ; preds = %trace_qed_read_table.exit, %land.lhs.true5.i.i23, %if.then8.i.i29, %if.else.i.i28
  call void @llvm.lifetime.end.p0(i64 16, ptr nonnull %_now.i.i19)
  ret i32 %spec.select
}